target datalayout = "e-m:e-p270:32:32-p271:32:32-p272:64:64-i64:64-i128:128-f80:128-n8:16:32:64-S128"
target triple = "x86_64-pc-linux-gnu"

%struct.timeval = type { i64, i64 }
%struct.settings = type { i64, i32, i32, i32, ptr, i32, i32, i32, ptr, ptr, i32, double, i32, i32, i32, i8, i32, i32, i8, i32, i32, i32, i32, i32, i32, i8, i8, i8, i8, i8, i8, i8, i32, i32, double, double, i32, i32, i8, i32, i8, i8, ptr, i32, i32, i32, i32, double, double, i32, i8, i32, i32, i32, i32, i32, i8, i8, i8, ptr, i32, i32, i32, i32, i32, i32, i32, i32, i32, i32, double, i8, i32, i32, ptr, i32 }
%struct.stats_state = type { i64, i64, i64, i64, float, i32, i32, i32, i32, i8, i8, i8, i8 }
%struct._mc_meta_data = type { ptr, i64, ptr, i64, i64, i32 }

@process_started = dso_local global i64 0, align 8
@current_time = dso_local global i32 0, align 4
@settings = dso_local global %struct.settings zeroinitializer, align 8
@stats_state = dso_local global %struct.stats_state zeroinitializer, align 8
@.str.23 = private unnamed_addr constant [4 x i8] c"%lu\00", align 1
@.str.25 = private unnamed_addr constant [3 x i8] c"%u\00", align 1
@.str.29 = private unnamed_addr constant [3 x i8] c"%s\00", align 1
@.str.33 = private unnamed_addr constant [3 x i8] c"%d\00", align 1
@.str.39 = private unnamed_addr constant [5 x i8] c"%llu\00", align 1
@.str.112 = private unnamed_addr constant [9 x i8] c"maxbytes\00", align 1
@.str.131 = private unnamed_addr constant [11 x i8] c"chunk_size\00", align 1
@.str.143 = private unnamed_addr constant [14 x i8] c"item_size_max\00", align 1
@.str.146 = private unnamed_addr constant [14 x i8] c"slab_reassign\00", align 1
@.str.204 = private unnamed_addr constant [10 x i8] c"hashpower\00", align 1
@.str.461 = private unnamed_addr constant [13 x i8] c"mmap_oldbase\00", align 1
@.str.462 = private unnamed_addr constant [20 x i8] c"slab_chunk_size_max\00", align 1
@.str.463 = private unnamed_addr constant [15 x i8] c"slab_page_size\00", align 1
@.str.464 = private unnamed_addr constant [12 x i8] c"slab_config\00", align 1
@.str.465 = private unnamed_addr constant [8 x i8] c"use_cas\00", align 1
@.str.466 = private unnamed_addr constant [12 x i8] c"current_cas\00", align 1
@.str.467 = private unnamed_addr constant [12 x i8] c"oldest_live\00", align 1
@.str.468 = private unnamed_addr constant [11 x i8] c"logger_gid\00", align 1
@.str.469 = private unnamed_addr constant [13 x i8] c"current_time\00", align 1
@.str.470 = private unnamed_addr constant [10 x i8] c"stop_time\00", align 1
@.str.471 = private unnamed_addr constant [16 x i8] c"process_started\00", align 1
@.str.473 = private unnamed_addr constant [6 x i8] c"false\00", align 1
@.str.474 = private unnamed_addr constant [5 x i8] c"true\00", align 1
@.str.479 = private unnamed_addr constant [3 x i8] c"%p\00", align 1

; Function Attrs: nounwind uwtable
define internal i32 @_mc_meta_save_cb(ptr noundef %0, ptr noundef %1, ptr noundef %2) #0 {
  %4 = alloca ptr, align 8
  %5 = alloca ptr, align 8
  %6 = alloca ptr, align 8
  %7 = alloca ptr, align 8
  %8 = alloca %struct.timeval, align 8
  store ptr %0, ptr %4, align 8, !tbaa !29
  store ptr %1, ptr %5, align 8, !tbaa !68
  store ptr %2, ptr %6, align 8, !tbaa !68
  call void @llvm.lifetime.start.p0(i64 8, ptr %7) #15
  %9 = load ptr, ptr %6, align 8, !tbaa !68
  store ptr %9, ptr %7, align 8, !tbaa !343
  %10 = load ptr, ptr %5, align 8, !tbaa !68
  %11 = load ptr, ptr %7, align 8, !tbaa !343
  %12 = getelementptr inbounds nuw %struct._mc_meta_data, ptr %11, i32 0, i32 2
  %13 = load ptr, ptr %12, align 8, !tbaa !345
  call void (ptr, ptr, ptr, ...) @restart_set_kv(ptr noundef %10, ptr noundef @.str.464, ptr noundef @.str.29, ptr noundef %13)
  %14 = load ptr, ptr %5, align 8, !tbaa !68
  %15 = load i64, ptr @settings, align 8, !tbaa !239
  call void (ptr, ptr, ptr, ...) @restart_set_kv(ptr noundef %14, ptr noundef @.str.112, ptr noundef @.str.39, i64 noundef %15)
  %16 = load ptr, ptr %5, align 8, !tbaa !68
  %17 = load i32, ptr getelementptr inbounds nuw (%struct.settings, ptr @settings, i32 0, i32 12), align 8, !tbaa !277
  call void (ptr, ptr, ptr, ...) @restart_set_kv(ptr noundef %16, ptr noundef @.str.131, ptr noundef @.str.33, i32 noundef %17)
  %18 = load ptr, ptr %5, align 8, !tbaa !68
  %19 = load i32, ptr getelementptr inbounds nuw (%struct.settings, ptr @settings, i32 0, i32 21), align 4, !tbaa !285
  call void (ptr, ptr, ptr, ...) @restart_set_kv(ptr noundef %18, ptr noundef @.str.143, ptr noundef @.str.33, i32 noundef %19)
  %20 = load ptr, ptr %5, align 8, !tbaa !68
  %21 = load i32, ptr getelementptr inbounds nuw (%struct.settings, ptr @settings, i32 0, i32 22), align 8, !tbaa !290
  call void (ptr, ptr, ptr, ...) @restart_set_kv(ptr noundef %20, ptr noundef @.str.462, ptr noundef @.str.33, i32 noundef %21)
  %22 = load ptr, ptr %5, align 8, !tbaa !68
  %23 = load i32, ptr getelementptr inbounds nuw (%struct.settings, ptr @settings, i32 0, i32 23), align 4, !tbaa !351
  call void (ptr, ptr, ptr, ...) @restart_set_kv(ptr noundef %22, ptr noundef @.str.463, ptr noundef @.str.33, i32 noundef %23)
  %24 = load ptr, ptr %5, align 8, !tbaa !68
  %25 = load i8, ptr getelementptr inbounds nuw (%struct.settings, ptr @settings, i32 0, i32 18), align 8, !tbaa !281, !range !59, !noundef !60
  %26 = trunc i8 %25 to i1
  %27 = select i1 %26, ptr @.str.474, ptr @.str.473
  call void (ptr, ptr, ptr, ...) @restart_set_kv(ptr noundef %24, ptr noundef @.str.465, ptr noundef @.str.29, ptr noundef %27)
  %28 = load ptr, ptr %5, align 8, !tbaa !68
  %29 = load i8, ptr getelementptr inbounds nuw (%struct.settings, ptr @settings, i32 0, i32 30), align 1, !tbaa !248, !range !59, !noundef !60
  %30 = trunc i8 %29 to i1
  %31 = select i1 %30, ptr @.str.474, ptr @.str.473
  call void (ptr, ptr, ptr, ...) @restart_set_kv(ptr noundef %28, ptr noundef @.str.146, ptr noundef @.str.29, ptr noundef %31)
  %32 = load ptr, ptr %5, align 8, !tbaa !68
  %33 = load volatile i32, ptr @current_time, align 4, !tbaa !8
  call void (ptr, ptr, ptr, ...) @restart_set_kv(ptr noundef %32, ptr noundef @.str.469, ptr noundef @.str.25, i32 noundef %33)
  %34 = load ptr, ptr %5, align 8, !tbaa !68
  %35 = load i64, ptr @process_started, align 8, !tbaa !4
  call void (ptr, ptr, ptr, ...) @restart_set_kv(ptr noundef %34, ptr noundef @.str.471, ptr noundef @.str.39, i64 noundef %35)
  call void @llvm.lifetime.start.p0(i64 16, ptr %8) #15
  %36 = call i32 @gettimeofday(ptr noundef %8, ptr noundef null) #15
  %37 = load ptr, ptr %5, align 8, !tbaa !68
  %38 = getelementptr inbounds nuw %struct.timeval, ptr %8, i32 0, i32 0
  %39 = load i64, ptr %38, align 8, !tbaa !336
  call void (ptr, ptr, ptr, ...) @restart_set_kv(ptr noundef %37, ptr noundef @.str.470, ptr noundef @.str.23, i64 noundef %39)
  call void @llvm.lifetime.end.p0(i64 16, ptr %8) #15
  %40 = load ptr, ptr %5, align 8, !tbaa !68
  %41 = call i64 @get_cas_id()
  call void (ptr, ptr, ptr, ...) @restart_set_kv(ptr noundef %40, ptr noundef @.str.466, ptr noundef @.str.39, i64 noundef %41)
  %42 = load ptr, ptr %5, align 8, !tbaa !68
  %43 = call i64 @logger_get_gid()
  call void (ptr, ptr, ptr, ...) @restart_set_kv(ptr noundef %42, ptr noundef @.str.468, ptr noundef @.str.39, i64 noundef %43)
  %44 = load ptr, ptr %5, align 8, !tbaa !68
  %45 = load i32, ptr getelementptr inbounds nuw (%struct.stats_state, ptr @stats_state, i32 0, i32 7), align 4, !tbaa !245
  call void (ptr, ptr, ptr, ...) @restart_set_kv(ptr noundef %44, ptr noundef @.str.204, ptr noundef @.str.25, i32 noundef %45)
  %46 = load ptr, ptr %5, align 8, !tbaa !68
  %47 = load i32, ptr getelementptr inbounds nuw (%struct.settings, ptr @settings, i32 0, i32 6), align 4, !tbaa !272
  call void (ptr, ptr, ptr, ...) @restart_set_kv(ptr noundef %46, ptr noundef @.str.467, ptr noundef @.str.25, i32 noundef %47)
  %48 = load ptr, ptr %5, align 8, !tbaa !68
  %49 = load ptr, ptr %7, align 8, !tbaa !343
  %50 = getelementptr inbounds nuw %struct._mc_meta_data, ptr %49, i32 0, i32 0
  %51 = load ptr, ptr %50, align 8, !tbaa !367
  call void (ptr, ptr, ptr, ...) @restart_set_kv(ptr noundef %48, ptr noundef @.str.461, ptr noundef @.str.479, ptr noundef %51)
  call void @llvm.lifetime.end.p0(i64 8, ptr %7) #15
  ret i32 0
}