; Function Attrs: nounwind uwtable
define internal noundef i32 @_mc_meta_save_cb(ptr readnone captures(none) %0, ptr noundef %1, ptr noundef readonly captures(none) %2) #1 {
  %4 = alloca %struct.timeval, align 8
  %5 = getelementptr inbounds nuw i8, ptr %2, i64 16
  %6 = load ptr, ptr %5, align 8, !tbaa !326
  tail call void (ptr, ptr, ptr, ...) @restart_set_kv(ptr noundef %1, ptr noundef nonnull @.str.464, ptr noundef nonnull @.str.29, ptr noundef %6) #34
  %7 = load i64, ptr @settings, align 8, !tbaa !230
  tail call void (ptr, ptr, ptr, ...) @restart_set_kv(ptr noundef %1, ptr noundef nonnull @.str.112, ptr noundef nonnull @.str.39, i64 noundef %7) #34
  %8 = load i32, ptr getelementptr inbounds nuw (i8, ptr @settings, i64 80), align 8, !tbaa !268
  tail call void (ptr, ptr, ptr, ...) @restart_set_kv(ptr noundef %1, ptr noundef nonnull @.str.131, ptr noundef nonnull @.str.33, i32 noundef %8) #34
  %9 = load i32, ptr getelementptr inbounds nuw (i8, ptr @settings, i64 116), align 4, !tbaa !276
  tail call void (ptr, ptr, ptr, ...) @restart_set_kv(ptr noundef %1, ptr noundef nonnull @.str.143, ptr noundef nonnull @.str.33, i32 noundef %9) #34
  %10 = load i32, ptr getelementptr inbounds nuw (i8, ptr @settings, i64 120), align 8, !tbaa !281
  tail call void (ptr, ptr, ptr, ...) @restart_set_kv(ptr noundef %1, ptr noundef nonnull @.str.462, ptr noundef nonnull @.str.33, i32 noundef %10) #34
  %11 = load i32, ptr getelementptr inbounds nuw (i8, ptr @settings, i64 124), align 4, !tbaa !328
  tail call void (ptr, ptr, ptr, ...) @restart_set_kv(ptr noundef %1, ptr noundef nonnull @.str.463, ptr noundef nonnull @.str.33, i32 noundef %11) #34
  %12 = load i8, ptr getelementptr inbounds nuw (i8, ptr @settings, i64 104), align 8, !tbaa !272, !range !60, !noundef !61
  %13 = trunc nuw i8 %12 to i1
  %14 = select i1 %13, ptr @.str.474, ptr @.str.473
  tail call void (ptr, ptr, ptr, ...) @restart_set_kv(ptr noundef %1, ptr noundef nonnull @.str.465, ptr noundef nonnull @.str.29, ptr noundef nonnull %14) #34
  %15 = load i8, ptr getelementptr inbounds nuw (i8, ptr @settings, i64 137), align 1, !tbaa !239, !range !60, !noundef !61
  %16 = trunc nuw i8 %15 to i1
  %17 = select i1 %16, ptr @.str.474, ptr @.str.473
  tail call void (ptr, ptr, ptr, ...) @restart_set_kv(ptr noundef %1, ptr noundef nonnull @.str.146, ptr noundef nonnull @.str.29, ptr noundef nonnull %17) #34
  %18 = load volatile i32, ptr @current_time, align 4, !tbaa !8
  tail call void (ptr, ptr, ptr, ...) @restart_set_kv(ptr noundef %1, ptr noundef nonnull @.str.469, ptr noundef nonnull @.str.25, i32 noundef %18) #34
  %19 = load i64, ptr @process_started, align 8, !tbaa !4
  tail call void (ptr, ptr, ptr, ...) @restart_set_kv(ptr noundef %1, ptr noundef nonnull @.str.471, ptr noundef nonnull @.str.39, i64 noundef %19) #34
  call void @llvm.lifetime.start.p0(i64 16, ptr nonnull %4) #34
  %20 = call i32 @gettimeofday(ptr noundef nonnull %4, ptr noundef null) #34
  %21 = load i64, ptr %4, align 8, !tbaa !321
  tail call void (ptr, ptr, ptr, ...) @restart_set_kv(ptr noundef %1, ptr noundef nonnull @.str.470, ptr noundef nonnull @.str.23, i64 noundef %21) #34
  call void @llvm.lifetime.end.p0(i64 16, ptr nonnull %4) #34
  %22 = tail call i64 @get_cas_id() #34
  tail call void (ptr, ptr, ptr, ...) @restart_set_kv(ptr noundef %1, ptr noundef nonnull @.str.466, ptr noundef nonnull @.str.39, i64 noundef %22) #34
  %23 = tail call i64 @logger_get_gid() #34
  tail call void (ptr, ptr, ptr, ...) @restart_set_kv(ptr noundef %1, ptr noundef nonnull @.str.468, ptr noundef nonnull @.str.39, i64 noundef %23) #34
  %24 = load i32, ptr getelementptr inbounds nuw (i8, ptr @stats_state, i64 44), align 4, !tbaa !236
  tail call void (ptr, ptr, ptr, ...) @restart_set_kv(ptr noundef %1, ptr noundef nonnull @.str.204, ptr noundef nonnull @.str.25, i32 noundef %24) #34
  %25 = load i32, ptr getelementptr inbounds nuw (i8, ptr @settings, i64 36), align 4, !tbaa !263
  tail call void (ptr, ptr, ptr, ...) @restart_set_kv(ptr noundef %1, ptr noundef nonnull @.str.467, ptr noundef nonnull @.str.25, i32 noundef %25) #34
  %26 = load ptr, ptr %2, align 8, !tbaa !349
  tail call void (ptr, ptr, ptr, ...) @restart_set_kv(ptr noundef %1, ptr noundef nonnull @.str.461, ptr noundef nonnull @.str.479, ptr noundef %26) #34
  ret i32 0
}